target datalayout = "e-m:e-p270:32:32-p271:32:32-p272:64:64-i64:64-i128:128-f80:128-n8:16:32:64-S128"
target triple = "x86_64-pc-linux-gnu"

%struct.vm_throw_data = type { i64, i64, i64, ptr, i32 }

; Function Attrs: inlinehint nounwind sspstrong uwtable
define internal ptr @THROW_DATA_NEW(i64 noundef %0, ptr noundef %1, i32 noundef %2) #2 {
  %4 = alloca i64, align 8
  %5 = alloca ptr, align 8
  %6 = alloca i32, align 4
  %7 = alloca ptr, align 8
  store i64 %0, ptr %4, align 8, !tbaa !31
  store ptr %1, ptr %5, align 8, !tbaa !14
  store i32 %2, ptr %6, align 4, !tbaa !24
  call void @llvm.lifetime.start.p0(i64 8, ptr %7) #21
  %8 = call i64 @rb_imemo_new(i32 noundef 3, i64 noundef 0, i64 noundef 40)
  %9 = inttoptr i64 %8 to ptr
  store ptr %9, ptr %7, align 8, !tbaa !381
  %10 = load i64, ptr %4, align 8, !tbaa !31
  %11 = load ptr, ptr %7, align 8, !tbaa !381
  %12 = getelementptr inbounds nuw %struct.vm_throw_data, ptr %11, i32 0, i32 2
  store i64 %10, ptr %12, align 8, !tbaa !31
  %13 = load ptr, ptr %5, align 8, !tbaa !14
  %14 = load ptr, ptr %7, align 8, !tbaa !381
  %15 = getelementptr inbounds nuw %struct.vm_throw_data, ptr %14, i32 0, i32 3
  store ptr %13, ptr %15, align 8, !tbaa !14
  %16 = load i32, ptr %6, align 4, !tbaa !24
  %17 = load ptr, ptr %7, align 8, !tbaa !381
  %18 = getelementptr inbounds nuw %struct.vm_throw_data, ptr %17, i32 0, i32 4
  store i32 %16, ptr %18, align 8, !tbaa !403
  %19 = load ptr, ptr %7, align 8, !tbaa !381
  call void @llvm.lifetime.end.p0(i64 8, ptr %7) #21
  ret ptr %19
}