; Function Attrs: inlinehint nounwind sspstrong uwtable
define internal fastcc ptr @THROW_DATA_NEW(i64 noundef %0, ptr noundef %1, i32 noundef range(i32 1, 256) %2) unnamed_addr #12 {
  %4 = tail call i64 @rb_imemo_new(i32 noundef 3, i64 noundef 0, i64 noundef 40) #21
  %5 = inttoptr i64 %4 to ptr
  %6 = getelementptr inbounds nuw i8, ptr %5, i64 16
  store i64 %0, ptr %6, align 8, !tbaa !7
  %7 = getelementptr inbounds nuw i8, ptr %5, i64 24
  store ptr %1, ptr %7, align 8, !tbaa !151
  %8 = getelementptr inbounds nuw i8, ptr %5, i64 32
  store i32 %2, ptr %8, align 8, !tbaa !152
  ret ptr %5
}